target datalayout = "e-m:e-p270:32:32-p271:32:32-p272:64:64-i64:64-i128:128-f80:128-n8:16:32:64-S128"
target triple = "x86_64-pc-linux-gnu"

%struct._php_stream = type { ptr, ptr, %struct._php_stream_filter_chain, %struct._php_stream_filter_chain, ptr, ptr, %struct._zval_struct, i16, [16 x i8], i32, ptr, ptr, ptr, ptr, i64, ptr, i64, i64, i64, i64, ptr }
%struct._php_stream_filter_chain = type { ptr, ptr, ptr }
%struct._zval_struct = type { %union._zend_value, %union.anon, %union.anon.2 }
%union._zend_value = type { i64 }
%union.anon = type { i32 }
%union.anon.2 = type { i32 }
%struct.php_stdio_stream_data = type { ptr, i32, i32, i32, ptr, ptr, i64, %struct.stat }
%struct.stat = type { i64, i64, i64, i32, i32, i32, i32, i64, i64, i64, i64, %struct.timespec, %struct.timespec, %struct.timespec, [3 x i64] }
%struct.timespec = type { i64, i64 }

; Function Attrs: nounwind uwtable
define internal i32 @php_stdiop_cast(ptr noundef %0, i32 noundef %1, ptr noundef %2) #0 {
  %4 = alloca i32, align 4
  %5 = alloca ptr, align 8
  %6 = alloca i32, align 4
  %7 = alloca ptr, align 8
  %8 = alloca i32, align 4
  %9 = alloca ptr, align 8
  %10 = alloca [5 x i8], align 1
  %11 = alloca i32, align 4
  store ptr %0, ptr %5, align 8, !tbaa !18
  store i32 %1, ptr %6, align 4, !tbaa !12
  store ptr %2, ptr %7, align 8, !tbaa !31
  call void @llvm.lifetime.start.p0(i64 4, ptr %8) #13
  call void @llvm.lifetime.start.p0(i64 8, ptr %9) #13
  %12 = load ptr, ptr %5, align 8, !tbaa !18
  %13 = getelementptr inbounds nuw %struct._php_stream, ptr %12, i32 0, i32 1
  %14 = load ptr, ptr %13, align 8, !tbaa !20
  store ptr %14, ptr %9, align 8, !tbaa !31
  %15 = load i32, ptr %6, align 4, !tbaa !12
  switch i32 %15, label %113 [
    i32 0, label %16
    i32 3, label %51
    i32 1, label %77
  ]

16:                                               ; preds = %3
  %17 = load ptr, ptr %7, align 8, !tbaa !31
  %18 = icmp ne ptr %17, null
  br i1 %18, label %19, label %50

19:                                               ; preds = %16
  %20 = load ptr, ptr %9, align 8, !tbaa !31
  %21 = getelementptr inbounds nuw %struct.php_stdio_stream_data, ptr %20, i32 0, i32 0
  %22 = load ptr, ptr %21, align 8, !tbaa !42
  %23 = icmp eq ptr %22, null
  br i1 %23, label %24, label %43

24:                                               ; preds = %19
  call void @llvm.lifetime.start.p0(i64 5, ptr %10) #13
  %25 = load ptr, ptr %5, align 8, !tbaa !18
  %26 = getelementptr inbounds [5 x i8], ptr %10, i64 0, i64 0
  call void @php_stream_mode_sanitize_fdopen_fopencookie(ptr noundef %25, ptr noundef %26)
  %27 = load ptr, ptr %9, align 8, !tbaa !31
  %28 = getelementptr inbounds nuw %struct.php_stdio_stream_data, ptr %27, i32 0, i32 1
  %29 = load i32, ptr %28, align 8, !tbaa !43
  %30 = getelementptr inbounds [5 x i8], ptr %10, i64 0, i64 0
  %31 = call noalias ptr @fdopen(i32 noundef %29, ptr noundef %30) #13
  %32 = load ptr, ptr %9, align 8, !tbaa !31
  %33 = getelementptr inbounds nuw %struct.php_stdio_stream_data, ptr %32, i32 0, i32 0
  store ptr %31, ptr %33, align 8, !tbaa !42
  %34 = load ptr, ptr %9, align 8, !tbaa !31
  %35 = getelementptr inbounds nuw %struct.php_stdio_stream_data, ptr %34, i32 0, i32 0
  %36 = load ptr, ptr %35, align 8, !tbaa !42
  %37 = icmp eq ptr %36, null
  br i1 %37, label %38, label %39

38:                                               ; preds = %24
  store i32 -1, ptr %4, align 4
  store i32 1, ptr %11, align 4
  br label %40

39:                                               ; preds = %24
  store i32 0, ptr %11, align 4
  br label %40

40:                                               ; preds = %39, %38
  call void @llvm.lifetime.end.p0(i64 5, ptr %10) #13
  %41 = load i32, ptr %11, align 4
  switch i32 %41, label %114 [
    i32 0, label %42
  ]

42:                                               ; preds = %40
  br label %43

43:                                               ; preds = %42, %19
  %44 = load ptr, ptr %9, align 8, !tbaa !31
  %45 = getelementptr inbounds nuw %struct.php_stdio_stream_data, ptr %44, i32 0, i32 0
  %46 = load ptr, ptr %45, align 8, !tbaa !42
  %47 = load ptr, ptr %7, align 8, !tbaa !31
  store ptr %46, ptr %47, align 8, !tbaa !51
  %48 = load ptr, ptr %9, align 8, !tbaa !31
  %49 = getelementptr inbounds nuw %struct.php_stdio_stream_data, ptr %48, i32 0, i32 1
  store i32 -1, ptr %49, align 8, !tbaa !43
  br label %50

50:                                               ; preds = %43, %16
  store i32 0, ptr %4, align 4
  store i32 1, ptr %11, align 4
  br label %114

51:                                               ; preds = %3
  %52 = load ptr, ptr %9, align 8, !tbaa !31
  %53 = getelementptr inbounds nuw %struct.php_stdio_stream_data, ptr %52, i32 0, i32 0
  %54 = load ptr, ptr %53, align 8, !tbaa !42
  %55 = icmp ne ptr %54, null
  br i1 %55, label %56, label %61

56:                                               ; preds = %51
  %57 = load ptr, ptr %9, align 8, !tbaa !31
  %58 = getelementptr inbounds nuw %struct.php_stdio_stream_data, ptr %57, i32 0, i32 0
  %59 = load ptr, ptr %58, align 8, !tbaa !42
  %60 = call i32 @fileno(ptr noundef %59) #13
  br label %65

61:                                               ; preds = %51
  %62 = load ptr, ptr %9, align 8, !tbaa !31
  %63 = getelementptr inbounds nuw %struct.php_stdio_stream_data, ptr %62, i32 0, i32 1
  %64 = load i32, ptr %63, align 8, !tbaa !43
  br label %65

65:                                               ; preds = %61, %56
  %66 = phi i32 [ %60, %56 ], [ %64, %61 ]
  store i32 %66, ptr %8, align 4, !tbaa !12
  %67 = load i32, ptr %8, align 4, !tbaa !12
  %68 = icmp eq i32 -1, %67
  br i1 %68, label %69, label %70

69:                                               ; preds = %65
  store i32 -1, ptr %4, align 4
  store i32 1, ptr %11, align 4
  br label %114

70:                                               ; preds = %65
  %71 = load ptr, ptr %7, align 8, !tbaa !31
  %72 = icmp ne ptr %71, null
  br i1 %72, label %73, label %76

73:                                               ; preds = %70
  %74 = load i32, ptr %8, align 4, !tbaa !12
  %75 = load ptr, ptr %7, align 8, !tbaa !31
  store i32 %74, ptr %75, align 4, !tbaa !12
  br label %76

76:                                               ; preds = %73, %70
  store i32 0, ptr %4, align 4
  store i32 1, ptr %11, align 4
  br label %114

77:                                               ; preds = %3
  %78 = load ptr, ptr %9, align 8, !tbaa !31
  %79 = getelementptr inbounds nuw %struct.php_stdio_stream_data, ptr %78, i32 0, i32 0
  %80 = load ptr, ptr %79, align 8, !tbaa !42
  %81 = icmp ne ptr %80, null
  br i1 %81, label %82, label %87

82:                                               ; preds = %77
  %83 = load ptr, ptr %9, align 8, !tbaa !31
  %84 = getelementptr inbounds nuw %struct.php_stdio_stream_data, ptr %83, i32 0, i32 0
  %85 = load ptr, ptr %84, align 8, !tbaa !42
  %86 = call i32 @fileno(ptr noundef %85) #13
  br label %91

87:                                               ; preds = %77
  %88 = load ptr, ptr %9, align 8, !tbaa !31
  %89 = getelementptr inbounds nuw %struct.php_stdio_stream_data, ptr %88, i32 0, i32 1
  %90 = load i32, ptr %89, align 8, !tbaa !43
  br label %91

91:                                               ; preds = %87, %82
  %92 = phi i32 [ %86, %82 ], [ %90, %87 ]
  store i32 %92, ptr %8, align 4, !tbaa !12
  %93 = load i32, ptr %8, align 4, !tbaa !12
  %94 = icmp eq i32 -1, %93
  br i1 %94, label %95, label %96

95:                                               ; preds = %91
  store i32 -1, ptr %4, align 4
  store i32 1, ptr %11, align 4
  br label %114

96:                                               ; preds = %91
  %97 = load ptr, ptr %9, align 8, !tbaa !31
  %98 = getelementptr inbounds nuw %struct.php_stdio_stream_data, ptr %97, i32 0, i32 0
  %99 = load ptr, ptr %98, align 8, !tbaa !42
  %100 = icmp ne ptr %99, null
  br i1 %100, label %101, label %106

101:                                              ; preds = %96
  %102 = load ptr, ptr %9, align 8, !tbaa !31
  %103 = getelementptr inbounds nuw %struct.php_stdio_stream_data, ptr %102, i32 0, i32 0
  %104 = load ptr, ptr %103, align 8, !tbaa !42
  %105 = call i32 @fflush(ptr noundef %104)
  br label %106

106:                                              ; preds = %101, %96
  %107 = load ptr, ptr %7, align 8, !tbaa !31
  %108 = icmp ne ptr %107, null
  br i1 %108, label %109, label %112

109:                                              ; preds = %106
  %110 = load i32, ptr %8, align 4, !tbaa !12
  %111 = load ptr, ptr %7, align 8, !tbaa !31
  store i32 %110, ptr %111, align 4, !tbaa !12
  br label %112

112:                                              ; preds = %109, %106
  store i32 0, ptr %4, align 4
  store i32 1, ptr %11, align 4
  br label %114

113:                                              ; preds = %3
  store i32 -1, ptr %4, align 4
  store i32 1, ptr %11, align 4
  br label %114

114:                                              ; preds = %113, %112, %95, %76, %69, %50, %40
  call void @llvm.lifetime.end.p0(i64 8, ptr %9) #13
  call void @llvm.lifetime.end.p0(i64 4, ptr %8) #13
  %115 = load i32, ptr %4, align 4
  ret i32 %115
}