; Function Attrs: nounwind uwtable
define internal range(i32 -1, 1) i32 @php_stdiop_cast(ptr noundef %0, i32 noundef %1, ptr noundef writeonly captures(address_is_null) %2) #3 {
  %4 = alloca [5 x i8], align 1
  %5 = getelementptr inbounds nuw i8, ptr %0, i64 8
  %6 = load ptr, ptr %5, align 8, !tbaa !20
  switch i32 %1, label %46 [
    i32 0, label %7
    i32 3, label %18
    i32 1, label %30
  ]

7:                                                ; preds = %3
  %.not40 = icmp eq ptr %2, null
  br i1 %.not40, label %46, label %8

8:                                                ; preds = %7
  %9 = load ptr, ptr %6, align 8, !tbaa !36
  %10 = icmp eq ptr %9, null
  br i1 %10, label %11, label %15

11:                                               ; preds = %8
  call void @llvm.lifetime.start.p0(i64 5, ptr nonnull %4) #17
  call void @php_stream_mode_sanitize_fdopen_fopencookie(ptr noundef nonnull %0, ptr noundef nonnull %4) #17
  %12 = getelementptr inbounds nuw i8, ptr %6, i64 8
  %13 = load i32, ptr %12, align 8, !tbaa !19
  %14 = call noalias ptr @fdopen(i32 noundef %13, ptr noundef nonnull %4) #17
  store ptr %14, ptr %6, align 8, !tbaa !36
  %.not41 = icmp eq ptr %14, null
  call void @llvm.lifetime.end.p0(i64 5, ptr nonnull %4) #17
  br i1 %.not41, label %46, label %15

15:                                               ; preds = %11, %8
  %16 = phi ptr [ %14, %11 ], [ %9, %8 ]
  store ptr %16, ptr %2, align 8, !tbaa !44
  %17 = getelementptr inbounds nuw i8, ptr %6, i64 8
  store i32 -1, ptr %17, align 8, !tbaa !19
  br label %46

18:                                               ; preds = %3
  %19 = load ptr, ptr %6, align 8, !tbaa !36
  %.not38 = icmp eq ptr %19, null
  br i1 %.not38, label %22, label %20

20:                                               ; preds = %18
  %21 = tail call i32 @fileno(ptr noundef nonnull %19) #17
  br label %25

22:                                               ; preds = %18
  %23 = getelementptr inbounds nuw i8, ptr %6, i64 8
  %24 = load i32, ptr %23, align 8, !tbaa !19
  br label %25

25:                                               ; preds = %22, %20
  %26 = phi i32 [ %21, %20 ], [ %24, %22 ]
  %27 = icmp eq i32 %26, -1
  br i1 %27, label %46, label %28

28:                                               ; preds = %25
  %.not39 = icmp eq ptr %2, null
  br i1 %.not39, label %46, label %29

29:                                               ; preds = %28
  store i32 %26, ptr %2, align 4, !tbaa !7
  br label %46

30:                                               ; preds = %3
  %31 = load ptr, ptr %6, align 8, !tbaa !36
  %.not = icmp eq ptr %31, null
  br i1 %.not, label %34, label %32

32:                                               ; preds = %30
  %33 = tail call i32 @fileno(ptr noundef nonnull %31) #17
  br label %37

34:                                               ; preds = %30
  %35 = getelementptr inbounds nuw i8, ptr %6, i64 8
  %36 = load i32, ptr %35, align 8, !tbaa !19
  br label %37

37:                                               ; preds = %34, %32
  %38 = phi i32 [ %33, %32 ], [ %36, %34 ]
  %39 = icmp eq i32 %38, -1
  br i1 %39, label %46, label %40

40:                                               ; preds = %37
  %41 = load ptr, ptr %6, align 8, !tbaa !36
  %.not36 = icmp eq ptr %41, null
  br i1 %.not36, label %44, label %42

42:                                               ; preds = %40
  %43 = tail call i32 @fflush(ptr noundef nonnull %41)
  br label %44

44:                                               ; preds = %42, %40
  %.not37 = icmp eq ptr %2, null
  br i1 %.not37, label %46, label %45

45:                                               ; preds = %44
  store i32 %38, ptr %2, align 4, !tbaa !7
  br label %46

46:                                               ; preds = %3, %44, %45, %37, %28, %29, %25, %7, %15, %11
  %.1 = phi i32 [ -1, %11 ], [ 0, %15 ], [ 0, %7 ], [ -1, %25 ], [ 0, %29 ], [ 0, %28 ], [ -1, %37 ], [ 0, %45 ], [ 0, %44 ], [ -1, %3 ]
  ret i32 %.1
}